target datalayout = "e-m:e-p270:32:32-p271:32:32-p272:64:64-i64:64-i128:128-f80:128-n8:16:32:64-S128"
target triple = "x86_64-pc-linux-gnu"

%struct.ID3v2ExtraMeta = type { ptr, ptr, %union.anon }
%union.anon = type { %struct.ID3v2ExtraMetaGEOB }
%struct.ID3v2ExtraMetaGEOB = type { i32, ptr, ptr, ptr, ptr }
%struct.AVBPrint = type { ptr, i32, i32, i32, [1 x i8], [1000 x i8] }
%struct.ID3v2ExtraMetaPRIV = type { ptr, ptr, i32 }

@.str.69 = private unnamed_addr constant [5 x i8] c"PRIV\00", align 1
@.str.70 = private unnamed_addr constant [14 x i8] c"id3v2_priv.%s\00", align 1
@.str.71 = private unnamed_addr constant [7 x i8] c"\\x%02x\00", align 1

; Function Attrs: nounwind uwtable
define i32 @ff_id3v2_parse_priv_dict(ptr noundef %0, ptr noundef %1) #0 {
  %3 = alloca i32, align 4
  %4 = alloca ptr, align 8
  %5 = alloca ptr, align 8
  %6 = alloca ptr, align 8
  %7 = alloca i32, align 4
  %8 = alloca ptr, align 8
  %9 = alloca %struct.AVBPrint, align 8
  %10 = alloca ptr, align 8
  %11 = alloca ptr, align 8
  %12 = alloca i32, align 4
  %13 = alloca i32, align 4
  %14 = alloca i32, align 4
  store ptr %0, ptr %4, align 8, !tbaa !14
  store ptr %1, ptr %5, align 8, !tbaa !23
  call void @llvm.lifetime.start.p0(i64 8, ptr %6) #10
  call void @llvm.lifetime.start.p0(i64 4, ptr %7) #10
  store i32 28, ptr %7, align 4, !tbaa !10
  %15 = load ptr, ptr %5, align 8, !tbaa !23
  store ptr %15, ptr %6, align 8, !tbaa !23
  br label %16

16:                                               ; preds = %116, %2
  %17 = load ptr, ptr %6, align 8, !tbaa !23
  %18 = icmp ne ptr %17, null
  br i1 %18, label %19, label %120

19:                                               ; preds = %16
  %20 = load ptr, ptr %6, align 8, !tbaa !23
  %21 = getelementptr inbounds nuw %struct.ID3v2ExtraMeta, ptr %20, i32 0, i32 0
  %22 = load ptr, ptr %21, align 8, !tbaa !41
  %23 = call i32 @strcmp(ptr noundef %22, ptr noundef @.str.69) #11
  %24 = icmp ne i32 %23, 0
  br i1 %24, label %115, label %25

25:                                               ; preds = %19
  call void @llvm.lifetime.start.p0(i64 8, ptr %8) #10
  %26 = load ptr, ptr %6, align 8, !tbaa !23
  %27 = getelementptr inbounds nuw %struct.ID3v2ExtraMeta, ptr %26, i32 0, i32 2
  store ptr %27, ptr %8, align 8, !tbaa !84
  call void @llvm.lifetime.start.p0(i64 1024, ptr %9) #10
  call void @llvm.lifetime.start.p0(i64 8, ptr %10) #10
  call void @llvm.lifetime.start.p0(i64 8, ptr %11) #10
  call void @llvm.lifetime.start.p0(i64 4, ptr %12) #10
  call void @llvm.lifetime.start.p0(i64 4, ptr %13) #10
  %28 = load ptr, ptr %8, align 8, !tbaa !84
  %29 = getelementptr inbounds nuw %struct.ID3v2ExtraMetaPRIV, ptr %28, i32 0, i32 0
  %30 = load ptr, ptr %29, align 8, !tbaa !86
  %31 = call ptr (ptr, ...) @av_asprintf(ptr noundef @.str.70, ptr noundef %30)
  store ptr %31, ptr %11, align 8, !tbaa !4
  %32 = icmp eq ptr %31, null
  br i1 %32, label %33, label %34

33:                                               ; preds = %25
  store i32 -12, ptr %3, align 4
  store i32 1, ptr %14, align 4
  br label %112

34:                                               ; preds = %25
  %35 = load ptr, ptr %8, align 8, !tbaa !84
  %36 = getelementptr inbounds nuw %struct.ID3v2ExtraMetaPRIV, ptr %35, i32 0, i32 2
  %37 = load i32, ptr %36, align 8, !tbaa !88
  %38 = add i32 %37, 1
  call void @av_bprint_init(ptr noundef %9, i32 noundef %38, i32 noundef -1)
  store i32 0, ptr %12, align 4, !tbaa !10
  br label %39

39:                                               ; preds = %93, %34
  %40 = load i32, ptr %12, align 4, !tbaa !10
  %41 = load ptr, ptr %8, align 8, !tbaa !84
  %42 = getelementptr inbounds nuw %struct.ID3v2ExtraMetaPRIV, ptr %41, i32 0, i32 2
  %43 = load i32, ptr %42, align 8, !tbaa !88
  %44 = icmp ult i32 %40, %43
  br i1 %44, label %45, label %96

45:                                               ; preds = %39
  %46 = load ptr, ptr %8, align 8, !tbaa !84
  %47 = getelementptr inbounds nuw %struct.ID3v2ExtraMetaPRIV, ptr %46, i32 0, i32 1
  %48 = load ptr, ptr %47, align 8, !tbaa !89
  %49 = load i32, ptr %12, align 4, !tbaa !10
  %50 = sext i32 %49 to i64
  %51 = getelementptr inbounds i8, ptr %48, i64 %50
  %52 = load i8, ptr %51, align 1, !tbaa !9
  %53 = zext i8 %52 to i32
  %54 = icmp slt i32 %53, 32
  br i1 %54, label %75, label %55

55:                                               ; preds = %45
  %56 = load ptr, ptr %8, align 8, !tbaa !84
  %57 = getelementptr inbounds nuw %struct.ID3v2ExtraMetaPRIV, ptr %56, i32 0, i32 1
  %58 = load ptr, ptr %57, align 8, !tbaa !89
  %59 = load i32, ptr %12, align 4, !tbaa !10
  %60 = sext i32 %59 to i64
  %61 = getelementptr inbounds i8, ptr %58, i64 %60
  %62 = load i8, ptr %61, align 1, !tbaa !9
  %63 = zext i8 %62 to i32
  %64 = icmp sgt i32 %63, 126
  br i1 %64, label %75, label %65

65:                                               ; preds = %55
  %66 = load ptr, ptr %8, align 8, !tbaa !84
  %67 = getelementptr inbounds nuw %struct.ID3v2ExtraMetaPRIV, ptr %66, i32 0, i32 1
  %68 = load ptr, ptr %67, align 8, !tbaa !89
  %69 = load i32, ptr %12, align 4, !tbaa !10
  %70 = sext i32 %69 to i64
  %71 = getelementptr inbounds i8, ptr %68, i64 %70
  %72 = load i8, ptr %71, align 1, !tbaa !9
  %73 = zext i8 %72 to i32
  %74 = icmp eq i32 %73, 92
  br i1 %74, label %75, label %84

75:                                               ; preds = %65, %55, %45
  %76 = load ptr, ptr %8, align 8, !tbaa !84
  %77 = getelementptr inbounds nuw %struct.ID3v2ExtraMetaPRIV, ptr %76, i32 0, i32 1
  %78 = load ptr, ptr %77, align 8, !tbaa !89
  %79 = load i32, ptr %12, align 4, !tbaa !10
  %80 = sext i32 %79 to i64
  %81 = getelementptr inbounds i8, ptr %78, i64 %80
  %82 = load i8, ptr %81, align 1, !tbaa !9
  %83 = zext i8 %82 to i32
  call void (ptr, ptr, ...) @av_bprintf(ptr noundef %9, ptr noundef @.str.71, i32 noundef %83)
  br label %92

84:                                               ; preds = %65
  %85 = load ptr, ptr %8, align 8, !tbaa !84
  %86 = getelementptr inbounds nuw %struct.ID3v2ExtraMetaPRIV, ptr %85, i32 0, i32 1
  %87 = load ptr, ptr %86, align 8, !tbaa !89
  %88 = load i32, ptr %12, align 4, !tbaa !10
  %89 = sext i32 %88 to i64
  %90 = getelementptr inbounds i8, ptr %87, i64 %89
  %91 = load i8, ptr %90, align 1, !tbaa !9
  call void @av_bprint_chars(ptr noundef %9, i8 noundef signext %91, i32 noundef 1)
  br label %92

92:                                               ; preds = %84, %75
  br label %93

93:                                               ; preds = %92
  %94 = load i32, ptr %12, align 4, !tbaa !10
  %95 = add nsw i32 %94, 1
  store i32 %95, ptr %12, align 4, !tbaa !10
  br label %39, !llvm.loop !90

96:                                               ; preds = %39
  %97 = call i32 @av_bprint_finalize(ptr noundef %9, ptr noundef %10)
  store i32 %97, ptr %13, align 4, !tbaa !10
  %98 = icmp slt i32 %97, 0
  br i1 %98, label %99, label %102

99:                                               ; preds = %96
  %100 = load ptr, ptr %11, align 8, !tbaa !4
  call void @av_free(ptr noundef %100)
  %101 = load i32, ptr %13, align 4, !tbaa !10
  store i32 %101, ptr %3, align 4
  store i32 1, ptr %14, align 4
  br label %112

102:                                              ; preds = %96
  %103 = load ptr, ptr %4, align 8, !tbaa !14
  %104 = load ptr, ptr %11, align 8, !tbaa !4
  %105 = load ptr, ptr %10, align 8, !tbaa !4
  %106 = load i32, ptr %7, align 4, !tbaa !10
  %107 = call i32 @av_dict_set(ptr noundef %103, ptr noundef %104, ptr noundef %105, i32 noundef %106)
  store i32 %107, ptr %13, align 4, !tbaa !10
  %108 = icmp slt i32 %107, 0
  br i1 %108, label %109, label %111

109:                                              ; preds = %102
  %110 = load i32, ptr %13, align 4, !tbaa !10
  store i32 %110, ptr %3, align 4
  store i32 1, ptr %14, align 4
  br label %112

111:                                              ; preds = %102
  store i32 0, ptr %14, align 4
  br label %112

112:                                              ; preds = %111, %109, %99, %33
  call void @llvm.lifetime.end.p0(i64 4, ptr %13) #10
  call void @llvm.lifetime.end.p0(i64 4, ptr %12) #10
  call void @llvm.lifetime.end.p0(i64 8, ptr %11) #10
  call void @llvm.lifetime.end.p0(i64 8, ptr %10) #10
  call void @llvm.lifetime.end.p0(i64 1024, ptr %9) #10
  call void @llvm.lifetime.end.p0(i64 8, ptr %8) #10
  %113 = load i32, ptr %14, align 4
  switch i32 %113, label %121 [
    i32 0, label %114
  ]

114:                                              ; preds = %112
  br label %115

115:                                              ; preds = %114, %19
  br label %116

116:                                              ; preds = %115
  %117 = load ptr, ptr %6, align 8, !tbaa !23
  %118 = getelementptr inbounds nuw %struct.ID3v2ExtraMeta, ptr %117, i32 0, i32 1
  %119 = load ptr, ptr %118, align 8, !tbaa !47
  store ptr %119, ptr %6, align 8, !tbaa !23
  br label %16, !llvm.loop !91

120:                                              ; preds = %16
  store i32 0, ptr %3, align 4
  store i32 1, ptr %14, align 4
  br label %121

121:                                              ; preds = %120, %112
  call void @llvm.lifetime.end.p0(i64 4, ptr %7) #10
  call void @llvm.lifetime.end.p0(i64 8, ptr %6) #10
  %122 = load i32, ptr %3, align 4
  ret i32 %122
}