; Function Attrs: nounwind uwtable
define range(i32 -2147483648, 1) i32 @ff_id3v2_parse_priv_dict(ptr noundef %0, ptr noundef readonly captures(address_is_null) %1) local_unnamed_addr #2 {
  %3 = alloca %struct.AVBPrint, align 8
  %4 = alloca ptr, align 8
  %.not41 = icmp eq ptr %1, null
  br i1 %.not41, label %.loopexit, label %.lr.ph45

.lr.ph45:                                         ; preds = %2, %38
  %.02942 = phi ptr [ %40, %38 ], [ %1, %2 ]
  %5 = load ptr, ptr %.02942, align 8, !tbaa !47
  %6 = call i32 @strcmp(ptr noundef nonnull dereferenceable(1) %5, ptr noundef nonnull dereferenceable(5) @.str.69) #10
  %.not34 = icmp eq i32 %6, 0
  br i1 %.not34, label %7, label %38

7:                                                ; preds = %.lr.ph45
  %8 = getelementptr inbounds nuw i8, ptr %.02942, i64 16
  call void @llvm.lifetime.start.p0(i64 1024, ptr nonnull %3) #9
  call void @llvm.lifetime.start.p0(i64 8, ptr nonnull %4) #9
  %9 = load ptr, ptr %8, align 8, !tbaa !78
  %10 = call ptr (ptr, ...) @av_asprintf(ptr noundef nonnull @.str.70, ptr noundef %9) #9
  %11 = icmp eq ptr %10, null
  br i1 %11, label %.thread, label %12

12:                                               ; preds = %7
  %13 = getelementptr inbounds nuw i8, ptr %.02942, i64 32
  %14 = load i32, ptr %13, align 8, !tbaa !80
  %15 = add i32 %14, 1
  call void @av_bprint_init(ptr noundef nonnull %3, i32 noundef %15, i32 noundef -1) #9
  %16 = load i32, ptr %13, align 8, !tbaa !80
  %.not48 = icmp eq i32 %16, 0
  br i1 %.not48, label %._crit_edge, label %.lr.ph

.lr.ph:                                           ; preds = %12
  %17 = getelementptr inbounds nuw i8, ptr %.02942, i64 24
  br label %18

18:                                               ; preds = %.lr.ph, %27
  %indvars.iv = phi i64 [ 0, %.lr.ph ], [ %indvars.iv.next, %27 ]
  %19 = load ptr, ptr %17, align 8, !tbaa !81
  %20 = getelementptr inbounds nuw i8, ptr %19, i64 %indvars.iv
  %21 = load i8, ptr %20, align 1, !tbaa !4
  %22 = add i8 %21, -127
  %or.cond = icmp ult i8 %22, -95
  %23 = icmp eq i8 %21, 92
  %or.cond35 = or i1 %23, %or.cond
  br i1 %or.cond35, label %24, label %26

24:                                               ; preds = %18
  %25 = zext i8 %21 to i32
  call void (ptr, ptr, ...) @av_bprintf(ptr noundef nonnull %3, ptr noundef nonnull @.str.71, i32 noundef %25) #9
  br label %27

26:                                               ; preds = %18
  call void @av_bprint_chars(ptr noundef nonnull %3, i8 noundef signext %21, i32 noundef 1) #9
  br label %27

27:                                               ; preds = %24, %26
  %indvars.iv.next = add nuw nsw i64 %indvars.iv, 1
  %28 = load i32, ptr %13, align 8, !tbaa !80
  %29 = zext i32 %28 to i64
  %30 = icmp samesign ult i64 %indvars.iv.next, %29
  br i1 %30, label %18, label %._crit_edge, !llvm.loop !82

._crit_edge:                                      ; preds = %27, %12
  %31 = call i32 @av_bprint_finalize(ptr noundef nonnull %3, ptr noundef nonnull %4) #9
  %32 = icmp slt i32 %31, 0
  br i1 %32, label %33, label %34

33:                                               ; preds = %._crit_edge
  call void @av_free(ptr noundef nonnull %10) #9
  br label %.thread

.thread:                                          ; preds = %7, %33
  %.1.ph = phi i32 [ %31, %33 ], [ -12, %7 ]
  call void @llvm.lifetime.end.p0(i64 8, ptr nonnull %4) #9
  call void @llvm.lifetime.end.p0(i64 1024, ptr nonnull %3) #9
  br label %.loopexit

34:                                               ; preds = %._crit_edge
  %35 = load ptr, ptr %4, align 8, !tbaa !10
  %36 = call i32 @av_dict_set(ptr noundef %0, ptr noundef nonnull %10, ptr noundef %35, i32 noundef 28) #9
  %37 = icmp sgt i32 %36, -1
  call void @llvm.lifetime.end.p0(i64 8, ptr nonnull %4) #9
  call void @llvm.lifetime.end.p0(i64 1024, ptr nonnull %3) #9
  br i1 %37, label %38, label %.loopexit

38:                                               ; preds = %.lr.ph45, %34
  %39 = getelementptr inbounds nuw i8, ptr %.02942, i64 8
  %40 = load ptr, ptr %39, align 8, !tbaa !50
  %.not = icmp eq ptr %40, null
  br i1 %.not, label %.loopexit, label %.lr.ph45, !llvm.loop !83

.loopexit:                                        ; preds = %34, %38, %2, %.thread
  %.2 = phi i32 [ %.1.ph, %.thread ], [ 0, %2 ], [ %36, %34 ], [ 0, %38 ]
  ret i32 %.2
}